; Function Attrs: mustprogress uwtable
define hidden noundef ptr @_ZN11ast_manager13mk_congruenceEP3appS1_jPKS1_(ptr noundef nonnull align 8 dereferenceable(976) %0, ptr noundef %1, ptr noundef %2, i32 noundef %3, ptr noundef readonly captures(none) %4) local_unnamed_addr #7 align 2 {
  %6 = alloca [2 x ptr], align 16
  %7 = getelementptr inbounds nuw i8, ptr %1, i64 4
  %8 = load i32, ptr %7, align 4
  %trunc.i = trunc i32 %8 to i16
  switch i16 %trunc.i, label %20 [
    i16 0, label %9
    i16 1, label %14
    i16 2, label %17
  ]

9:                                                ; preds = %5
  %10 = getelementptr inbounds nuw i8, ptr %1, i64 16
  %11 = load ptr, ptr %10, align 8, !tbaa !118
  %12 = getelementptr inbounds nuw i8, ptr %11, i64 40
  %13 = load ptr, ptr %12, align 8, !tbaa !117
  br label %_ZNK4expr8get_sortEv.exit

14:                                               ; preds = %5
  %15 = getelementptr inbounds nuw i8, ptr %1, i64 24
  %16 = load ptr, ptr %15, align 8, !tbaa !139
  br label %_ZNK4expr8get_sortEv.exit

17:                                               ; preds = %5
  %18 = getelementptr inbounds nuw i8, ptr %1, i64 32
  %19 = load ptr, ptr %18, align 8, !tbaa !132
  br label %_ZNK4expr8get_sortEv.exit

20:                                               ; preds = %5
  tail call void @_Z26notify_assertion_violationPKciS0_(ptr noundef nonnull @.str, i32 noundef 388, ptr noundef nonnull @.str.1)
  tail call void @_Z18invoke_exit_actionj(i32 noundef 114)
  br label %_ZNK4expr8get_sortEv.exit

_ZNK4expr8get_sortEv.exit:                        ; preds = %9, %14, %17, %20
  %.0.i = phi ptr [ null, %20 ], [ %19, %17 ], [ %16, %14 ], [ %13, %9 ]
  call void @llvm.lifetime.start.p0(i64 16, ptr nonnull %6) #38
  store ptr %.0.i, ptr %6, align 16, !tbaa !142
  %21 = getelementptr inbounds nuw i8, ptr %6, i64 8
  store ptr %.0.i, ptr %21, align 8, !tbaa !142
  %22 = getelementptr inbounds nuw i8, ptr %0, i64 704
  %23 = load ptr, ptr %22, align 8, !tbaa !33
  %24 = icmp eq ptr %23, null
  br i1 %24, label %_ZN11ast_manager12mk_func_declEiijPK9parameterjPKP4sortS4_.exit, label %_ZNK6vectorIP11decl_pluginLb0EjE3getEjRKS1_.exit.i.i

_ZNK6vectorIP11decl_pluginLb0EjE3getEjRKS1_.exit.i.i: ; preds = %_ZNK4expr8get_sortEv.exit
  %25 = getelementptr inbounds i8, ptr %23, i64 -4
  %26 = load i32, ptr %25, align 4, !tbaa !24
  %.not.i.i.i.not = icmp eq i32 %26, 0
  br i1 %.not.i.i.i.not, label %_ZN11ast_manager12mk_func_declEiijPK9parameterjPKP4sortS4_.exit, label %_ZNK11ast_manager10get_pluginEi.exit.i

_ZNK11ast_manager10get_pluginEi.exit.i:           ; preds = %_ZNK6vectorIP11decl_pluginLb0EjE3getEjRKS1_.exit.i.i
  %.then.val.i.i = load ptr, ptr %23, align 8, !tbaa !37
  %.not.i = icmp eq ptr %.then.val.i.i, null
  br i1 %.not.i, label %_ZN11ast_manager12mk_func_declEiijPK9parameterjPKP4sortS4_.exit, label %27

27:                                               ; preds = %_ZNK11ast_manager10get_pluginEi.exit.i
  %28 = load ptr, ptr %.then.val.i.i, align 8, !tbaa !39
  %29 = getelementptr inbounds nuw i8, ptr %28, i64 56
  %30 = load ptr, ptr %29, align 8
  %31 = call noundef ptr %30(ptr noundef nonnull align 8 dereferenceable(20) %.then.val.i.i, i32 noundef 2, i32 noundef 0, ptr noundef null, i32 noundef 2, ptr noundef nonnull %6, ptr noundef null)
  br label %_ZN11ast_manager12mk_func_declEiijPK9parameterjPKP4sortS4_.exit

_ZN11ast_manager12mk_func_declEiijPK9parameterjPKP4sortS4_.exit: ; preds = %_ZNK4expr8get_sortEv.exit, %_ZNK6vectorIP11decl_pluginLb0EjE3getEjRKS1_.exit.i.i, %_ZNK11ast_manager10get_pluginEi.exit.i, %27
  %.0.i8 = phi ptr [ %31, %27 ], [ null, %_ZNK11ast_manager10get_pluginEi.exit.i ], [ null, %_ZNK6vectorIP11decl_pluginLb0EjE3getEjRKS1_.exit.i.i ], [ null, %_ZNK4expr8get_sortEv.exit ]
  %32 = call noundef ptr @_ZN11ast_manager15mk_monotonicityEP9func_declP3appS3_jPKS3_(ptr noundef nonnull align 8 dereferenceable(976) %0, ptr noundef %.0.i8, ptr noundef nonnull %1, ptr noundef %2, i32 noundef %3, ptr noundef %4)
  call void @llvm.lifetime.end.p0(i64 16, ptr nonnull %6) #38
  ret ptr %32
}